; Function Attrs: mustprogress uwtable
define void @_ZN3zmq15tipc_listener_tC2EPNS_11io_thread_tEPNS_13socket_base_tERKNS_9options_tE(ptr noundef nonnull align 8 dereferenceable(1544) %this, ptr noundef %io_thread_, ptr noundef %socket_, ptr noundef nonnull align 8 dereferenceable(1336) %options_) unnamed_addr #0 align 2 personality ptr @__gxx_personality_v0 {
entry:
  tail call void @_ZN3zmq22stream_listener_base_tC2EPNS_11io_thread_tEPNS_13socket_base_tERKNS_9options_tE(ptr noundef nonnull align 8 dereferenceable(1520) %this, ptr noundef %io_thread_, ptr noundef %socket_, ptr noundef nonnull align 8 dereferenceable(1336) %options_)
  store ptr getelementptr inbounds ({ [30 x ptr], [7 x ptr] }, ptr @_ZTVN3zmq15tipc_listener_tE, i64 0, i32 0, i64 2), ptr %this, align 8
  %add.ptr = getelementptr inbounds i8, ptr %this, i64 1448
  store ptr getelementptr inbounds ({ [30 x ptr], [7 x ptr] }, ptr @_ZTVN3zmq15tipc_listener_tE, i64 0, i32 1, i64 2), ptr %add.ptr, align 8
  %_address = getelementptr inbounds i8, ptr %this, i64 1520
  invoke void @_ZN3zmq14tipc_address_tC1Ev(ptr noundef nonnull align 4 dereferenceable(20) %_address)
          to label %invoke.cont unwind label %lpad

invoke.cont:                                      ; preds = %entry
  ret void

lpad:                                             ; preds = %entry
  %0 = landingpad { ptr, i32 }
          cleanup
  tail call void @_ZN3zmq22stream_listener_base_tD2Ev(ptr noundef nonnull align 8 dereferenceable(1520) %this) #12
  resume { ptr, i32 } %0
}